	.section	__TEXT,__text,regular,pure_instructions
	.ios_version_min 9, 0
	.file	1 "/Users/luofuzhong/Desktop/test/Test_crashesAppearInevitably" "/Users/luofuzhong/Desktop/test/Test_crashesAppearInevitably/Test_crashesAppearInevitably/main.m"
	.globl	_my_close
	.p2align	2
_my_close:                              ; @my_close
Lfunc_begin0:
	.loc	1 32 0                  ; /Users/luofuzhong/Desktop/test/Test_crashesAppearInevitably/Test_crashesAppearInevitably/main.m:32:0
	.cfi_startproc
; BB#0:
	sub	sp, sp, #32             ; =32
	stp	x29, x30, [sp, #16]     ; 8-byte Folded Spill
	add	x29, sp, #16            ; =16
Lcfi0:
	.cfi_def_cfa w29, 16
Lcfi1:
	.cfi_offset w30, -8
Lcfi2:
	.cfi_offset w29, -16
	stur	w0, [x29, #-4]
Ltmp0:
	.loc	1 33 40 prologue_end    ; /Users/luofuzhong/Desktop/test/Test_crashesAppearInevitably/Test_crashesAppearInevitably/main.m:33:40
	ldur	w0, [x29, #-4]
                                        ; implicit-def: %X1
	.loc	1 33 5 is_stmt 0        ; /Users/luofuzhong/Desktop/test/Test_crashesAppearInevitably/Test_crashesAppearInevitably/main.m:33:5
	mov	 x1, x0
	mov	 x8, sp
	str		x1, [x8]
	adrp	x0, l_.str@PAGE
	add	x0, x0, l_.str@PAGEOFF
	bl	_printf
	adrp	x8, _orig_close@PAGE
	add	x8, x8, _orig_close@PAGEOFF
	.loc	1 34 12 is_stmt 1       ; /Users/luofuzhong/Desktop/test/Test_crashesAppearInevitably/Test_crashesAppearInevitably/main.m:34:12
	ldr		x8, [x8]
	.loc	1 34 23 is_stmt 0       ; /Users/luofuzhong/Desktop/test/Test_crashesAppearInevitably/Test_crashesAppearInevitably/main.m:34:23
	ldur	w9, [x29, #-4]
	.loc	1 34 12                 ; /Users/luofuzhong/Desktop/test/Test_crashesAppearInevitably/Test_crashesAppearInevitably/main.m:34:12
	str	w0, [sp, #8]            ; 4-byte Folded Spill
	mov	 x0, x9
	blr	x8
	.loc	1 34 5                  ; /Users/luofuzhong/Desktop/test/Test_crashesAppearInevitably/Test_crashesAppearInevitably/main.m:34:5
	ldp	x29, x30, [sp, #16]     ; 8-byte Folded Reload
	add	sp, sp, #32             ; =32
	ret
Ltmp1:
Lfunc_end0:
	.cfi_endproc

	.globl	_my_open
	.p2align	2
_my_open:                               ; @my_open
Lfunc_begin1:
	.loc	1 37 0 is_stmt 1        ; /Users/luofuzhong/Desktop/test/Test_crashesAppearInevitably/Test_crashesAppearInevitably/main.m:37:0
	.cfi_startproc
; BB#0:
	sub	sp, sp, #96             ; =96
	stp	x29, x30, [sp, #80]     ; 8-byte Folded Spill
	add	x29, sp, #80            ; =80
Lcfi3:
	.cfi_def_cfa w29, 16
Lcfi4:
	.cfi_offset w30, -8
Lcfi5:
	.cfi_offset w29, -16
	mov	x8, #0
	stur	x0, [x29, #-16]
	stur	w1, [x29, #-20]
Ltmp2:
	.loc	1 38 13 prologue_end    ; /Users/luofuzhong/Desktop/test/Test_crashesAppearInevitably/Test_crashesAppearInevitably/main.m:38:13
	stur	x8, [x29, #-32]
	.loc	1 39 12                 ; /Users/luofuzhong/Desktop/test/Test_crashesAppearInevitably/Test_crashesAppearInevitably/main.m:39:12
	sturh	wzr, [x29, #-34]
Ltmp3:
	.loc	1 41 10                 ; /Users/luofuzhong/Desktop/test/Test_crashesAppearInevitably/Test_crashesAppearInevitably/main.m:41:10
	ldur	w1, [x29, #-20]
Ltmp4:
	.loc	1 41 9 is_stmt 0        ; /Users/luofuzhong/Desktop/test/Test_crashesAppearInevitably/Test_crashesAppearInevitably/main.m:41:9
	tbz	w1, #9, LBB1_2
; BB#1:
	.loc	1 0 9                   ; /Users/luofuzhong/Desktop/test/Test_crashesAppearInevitably/Test_crashesAppearInevitably/main.m:0:9
	sub	x8, x29, #32            ; =32
	add	x9, x29, #16            ; =16
Ltmp5:
	.loc	1 43 9 is_stmt 1        ; /Users/luofuzhong/Desktop/test/Test_crashesAppearInevitably/Test_crashesAppearInevitably/main.m:43:9
	stur	x9, [x29, #-32]
	.loc	1 44 16                 ; /Users/luofuzhong/Desktop/test/Test_crashesAppearInevitably/Test_crashesAppearInevitably/main.m:44:16
	ldur	x9, [x29, #-32]
	add	x10, x9, #8             ; =8
	stur	x10, [x29, #-32]
	ldr		w11, [x9]
	str	w11, [sp, #40]
	ldr	w11, [sp, #40]
	.loc	1 44 14 is_stmt 0       ; /Users/luofuzhong/Desktop/test/Test_crashesAppearInevitably/Test_crashesAppearInevitably/main.m:44:14
	sturh	w11, [x29, #-34]
	.loc	1 46 53 is_stmt 1       ; /Users/luofuzhong/Desktop/test/Test_crashesAppearInevitably/Test_crashesAppearInevitably/main.m:46:53
	ldur	x9, [x29, #-16]
	.loc	1 46 59 is_stmt 0       ; /Users/luofuzhong/Desktop/test/Test_crashesAppearInevitably/Test_crashesAppearInevitably/main.m:46:59
	ldur	w11, [x29, #-20]
	.loc	1 46 66                 ; /Users/luofuzhong/Desktop/test/Test_crashesAppearInevitably/Test_crashesAppearInevitably/main.m:46:66
	ldurh	w12, [x29, #-34]
                                        ; implicit-def: %X10
	.loc	1 46 9                  ; /Users/luofuzhong/Desktop/test/Test_crashesAppearInevitably/Test_crashesAppearInevitably/main.m:46:9
	mov	 x10, x12
	mov	 x13, sp
	str	x10, [x13, #16]
                                        ; implicit-def: %X10
	mov	 x10, x11
	str	x10, [x13, #8]
	str		x9, [x13]
	adrp	x0, l_.str.1@PAGE
	add	x0, x0, l_.str.1@PAGEOFF
	str	x8, [sp, #32]           ; 8-byte Folded Spill
	bl	_printf
	adrp	x8, _orig_open@PAGE
	add	x8, x8, _orig_open@PAGEOFF
	.loc	1 47 16 is_stmt 1       ; /Users/luofuzhong/Desktop/test/Test_crashesAppearInevitably/Test_crashesAppearInevitably/main.m:47:16
	ldr		x8, [x8]
	.loc	1 47 26 is_stmt 0       ; /Users/luofuzhong/Desktop/test/Test_crashesAppearInevitably/Test_crashesAppearInevitably/main.m:47:26
	ldur	x9, [x29, #-16]
	.loc	1 47 32                 ; /Users/luofuzhong/Desktop/test/Test_crashesAppearInevitably/Test_crashesAppearInevitably/main.m:47:32
	ldur	w1, [x29, #-20]
	.loc	1 47 39                 ; /Users/luofuzhong/Desktop/test/Test_crashesAppearInevitably/Test_crashesAppearInevitably/main.m:47:39
	ldurh	w11, [x29, #-34]
                                        ; implicit-def: %X10
	.loc	1 47 16                 ; /Users/luofuzhong/Desktop/test/Test_crashesAppearInevitably/Test_crashesAppearInevitably/main.m:47:16
	mov	 x10, x11
	mov	 x13, sp
	str		x10, [x13]
	str	w0, [sp, #28]           ; 4-byte Folded Spill
	mov	 x0, x9
	blr	x8
	.loc	1 47 9                  ; /Users/luofuzhong/Desktop/test/Test_crashesAppearInevitably/Test_crashesAppearInevitably/main.m:47:9
	stur	w0, [x29, #-4]
	b	LBB1_3
Ltmp6:
LBB1_2:
	.loc	1 49 49 is_stmt 1       ; /Users/luofuzhong/Desktop/test/Test_crashesAppearInevitably/Test_crashesAppearInevitably/main.m:49:49
	ldur	x8, [x29, #-16]
	.loc	1 49 55 is_stmt 0       ; /Users/luofuzhong/Desktop/test/Test_crashesAppearInevitably/Test_crashesAppearInevitably/main.m:49:55
	ldur	w9, [x29, #-20]
                                        ; implicit-def: %X0
	.loc	1 49 9                  ; /Users/luofuzhong/Desktop/test/Test_crashesAppearInevitably/Test_crashesAppearInevitably/main.m:49:9
	mov	 x0, x9
	mov	 x10, sp
	str	x0, [x10, #8]
	str		x8, [x10]
	adrp	x0, l_.str.2@PAGE
	add	x0, x0, l_.str.2@PAGEOFF
	bl	_printf
	adrp	x8, _orig_open@PAGE
	add	x8, x8, _orig_open@PAGEOFF
	.loc	1 50 16 is_stmt 1       ; /Users/luofuzhong/Desktop/test/Test_crashesAppearInevitably/Test_crashesAppearInevitably/main.m:50:16
	ldr		x8, [x8]
	.loc	1 50 26 is_stmt 0       ; /Users/luofuzhong/Desktop/test/Test_crashesAppearInevitably/Test_crashesAppearInevitably/main.m:50:26
	ldur	x10, [x29, #-16]
	.loc	1 50 32                 ; /Users/luofuzhong/Desktop/test/Test_crashesAppearInevitably/Test_crashesAppearInevitably/main.m:50:32
	ldur	w1, [x29, #-20]
	.loc	1 50 39                 ; /Users/luofuzhong/Desktop/test/Test_crashesAppearInevitably/Test_crashesAppearInevitably/main.m:50:39
	ldurh	w9, [x29, #-34]
                                        ; implicit-def: %LR
	.loc	1 50 16                 ; /Users/luofuzhong/Desktop/test/Test_crashesAppearInevitably/Test_crashesAppearInevitably/main.m:50:16
	mov	 x30, x9
	mov	 x11, sp
	str		x30, [x11]
	str	w0, [sp, #24]           ; 4-byte Folded Spill
	mov	 x0, x10
	blr	x8
	.loc	1 50 9                  ; /Users/luofuzhong/Desktop/test/Test_crashesAppearInevitably/Test_crashesAppearInevitably/main.m:50:9
	stur	w0, [x29, #-4]
Ltmp7:
LBB1_3:
	.loc	1 52 1 is_stmt 1        ; /Users/luofuzhong/Desktop/test/Test_crashesAppearInevitably/Test_crashesAppearInevitably/main.m:52:1
	ldur	w0, [x29, #-4]
	ldp	x29, x30, [sp, #80]     ; 8-byte Folded Reload
	add	sp, sp, #96             ; =96
	ret
Ltmp8:
Lfunc_end1:
	.cfi_endproc

	.globl	_main
	.p2align	2
_main:                                  ; @main
Lfunc_begin2:
	.loc	1 60 0                  ; /Users/luofuzhong/Desktop/test/Test_crashesAppearInevitably/Test_crashesAppearInevitably/main.m:60:0
	.cfi_startproc
; BB#0:
	sub	sp, sp, #64             ; =64
	stp	x29, x30, [sp, #48]     ; 8-byte Folded Spill
	add	x29, sp, #48            ; =48
Lcfi6:
	.cfi_def_cfa w29, 16
Lcfi7:
	.cfi_offset w30, -8
Lcfi8:
	.cfi_offset w29, -16
	stur	wzr, [x29, #-4]
	stur	w0, [x29, #-8]
	stur	x1, [x29, #-16]
Ltmp9:
	.loc	1 61 22 prologue_end    ; /Users/luofuzhong/Desktop/test/Test_crashesAppearInevitably/Test_crashesAppearInevitably/main.m:61:22
	bl	_objc_autoreleasePoolPush
	adrp	x1, l_OBJC_SELECTOR_REFERENCES_@PAGE
	add	x1, x1, l_OBJC_SELECTOR_REFERENCES_@PAGEOFF
	adrp	x30, l_OBJC_CLASSLIST_REFERENCES_$_@PAGE
	add	x30, x30, l_OBJC_CLASSLIST_REFERENCES_$_@PAGEOFF
Ltmp10:
	.loc	1 75 34                 ; /Users/luofuzhong/Desktop/test/Test_crashesAppearInevitably/Test_crashesAppearInevitably/main.m:75:34
	ldur	w8, [x29, #-8]
	.loc	1 75 40 is_stmt 0       ; /Users/luofuzhong/Desktop/test/Test_crashesAppearInevitably/Test_crashesAppearInevitably/main.m:75:40
	ldur	x9, [x29, #-16]
	.loc	1 75 69                 ; /Users/luofuzhong/Desktop/test/Test_crashesAppearInevitably/Test_crashesAppearInevitably/main.m:75:69
	ldr		x30, [x30]
	ldr		x1, [x1]
	str	x0, [sp, #24]           ; 8-byte Folded Spill
	mov	 x0, x30
	str	w8, [sp, #20]           ; 4-byte Folded Spill
	str	x9, [sp, #8]            ; 8-byte Folded Spill
	bl	_objc_msgSend
	.loc	1 75 51 discriminator 1 ; /Users/luofuzhong/Desktop/test/Test_crashesAppearInevitably/Test_crashesAppearInevitably/main.m:75:51
	bl	_NSStringFromClass
	.loc	1 75 51 discriminator 2 ; /Users/luofuzhong/Desktop/test/Test_crashesAppearInevitably/Test_crashesAppearInevitably/main.m:75:51
	; InlineAsm Start
	mov	 x29, x29	; marker for objc_retainAutoreleaseReturnValue
	; InlineAsm End
	.loc	1 75 51 discriminator 3 ; /Users/luofuzhong/Desktop/test/Test_crashesAppearInevitably/Test_crashesAppearInevitably/main.m:75:51
	bl	_objc_retainAutoreleasedReturnValue
	mov	x9, #0
	.loc	1 75 16 discriminator 4 ; /Users/luofuzhong/Desktop/test/Test_crashesAppearInevitably/Test_crashesAppearInevitably/main.m:75:16
	ldr	w8, [sp, #20]           ; 4-byte Folded Reload
	str		x0, [sp]        ; 8-byte Folded Spill
	mov	 x0, x8
	ldr	x1, [sp, #8]            ; 8-byte Folded Reload
	mov	 x2, x9
	ldr		x3, [sp]        ; 8-byte Folded Reload
	bl	_UIApplicationMain
	.loc	1 75 9                  ; /Users/luofuzhong/Desktop/test/Test_crashesAppearInevitably/Test_crashesAppearInevitably/main.m:75:9
	stur	w0, [x29, #-4]
	ldr		x1, [sp]        ; 8-byte Folded Reload
	.loc	1 75 9 discriminator 5  ; /Users/luofuzhong/Desktop/test/Test_crashesAppearInevitably/Test_crashesAppearInevitably/main.m:75:9
	mov	 x0, x1
	bl	_objc_release
	.loc	1 76 5 is_stmt 1        ; /Users/luofuzhong/Desktop/test/Test_crashesAppearInevitably/Test_crashesAppearInevitably/main.m:76:5
	ldr	x0, [sp, #24]           ; 8-byte Folded Reload
	bl	_objc_autoreleasePoolPop
Ltmp11:
	.loc	1 77 1                  ; /Users/luofuzhong/Desktop/test/Test_crashesAppearInevitably/Test_crashesAppearInevitably/main.m:77:1
	ldur	w0, [x29, #-4]
	ldp	x29, x30, [sp, #48]     ; 8-byte Folded Reload
	add	sp, sp, #64             ; =64
	ret
Ltmp12:
Lfunc_end2:
	.cfi_endproc

	.section	__TEXT,__cstring,cstring_literals
l_.str:                                 ; @.str
	.asciz	"Calling real close(%d)\n"

.zerofill __DATA,__bss,_orig_close,8,3  ; @orig_close
l_.str.1:                               ; @.str.1
	.asciz	"Calling real open('%s', %d, %d)\n"

.zerofill __DATA,__bss,_orig_open,8,3   ; @orig_open
l_.str.2:                               ; @.str.2
	.asciz	"Calling real open('%s', %d)\n"

	.section	__DATA,__objc_classrefs,regular,no_dead_strip
	.p2align	3               ; @"OBJC_CLASSLIST_REFERENCES_$_"
l_OBJC_CLASSLIST_REFERENCES_$_:
	.quad	_OBJC_CLASS_$_AppDelegate

	.section	__TEXT,__objc_methname,cstring_literals
l_OBJC_METH_VAR_NAME_:                  ; @OBJC_METH_VAR_NAME_
	.asciz	"class"

	.section	__DATA,__objc_selrefs,literal_pointers,no_dead_strip
	.p2align	3               ; @OBJC_SELECTOR_REFERENCES_
l_OBJC_SELECTOR_REFERENCES_:
	.quad	l_OBJC_METH_VAR_NAME_

	.section	__LLVM,__bitcode
l_llvm.embedded.module:                 ; @llvm.embedded.module
	.byte	0

	.section	__LLVM,__cmdline
l_llvm.cmdline:                         ; @llvm.cmdline
	.byte	0

	.linker_option "-framework", "UIKit"
	.linker_option "-framework", "FileProvider"
	.linker_option "-framework", "CoreText"
	.linker_option "-framework", "QuartzCore"
	.linker_option "-framework", "CoreImage"
	.linker_option "-framework", "ImageIO"
	.linker_option "-framework", "CoreVideo"
	.linker_option "-framework", "OpenGLES"
	.linker_option "-framework", "Metal"
	.linker_option "-framework", "IOSurface"
	.linker_option "-framework", "CoreGraphics"
	.linker_option "-framework", "Foundation"
	.linker_option "-framework", "CFNetwork"
	.linker_option "-framework", "Security"
	.linker_option "-framework", "CoreFoundation"
	.section	__DATA,__objc_imageinfo,regular,no_dead_strip
L_OBJC_IMAGE_INFO:
	.long	0
	.long	64

	.file	2 "/Users/luofuzhong/Desktop/test/Test_crashesAppearInevitably" "/Applications/Xcode.app/Contents/Developer/Platforms/iPhoneOS.platform/Developer/SDKs/iPhoneOS11.2.sdk/usr/include/arm/_types.h"
	.file	3 "/Users/luofuzhong/Desktop/test/Test_crashesAppearInevitably" "/Applications/Xcode.app/Contents/Developer/Platforms/iPhoneOS.platform/Developer/SDKs/iPhoneOS11.2.sdk/usr/include/sys/_types/_va_list.h"
	.file	4 "/Users/luofuzhong/Desktop/test/Test_crashesAppearInevitably" "/Applications/Xcode.app/Contents/Developer/Platforms/iPhoneOS.platform/Developer/SDKs/iPhoneOS11.2.sdk/usr/include/sys/_types.h"
	.file	5 "/Users/luofuzhong/Desktop/test/Test_crashesAppearInevitably" "/Applications/Xcode.app/Contents/Developer/Platforms/iPhoneOS.platform/Developer/SDKs/iPhoneOS11.2.sdk/usr/include/sys/_types/_mode_t.h"